target datalayout = "e-m:e-p270:32:32-p271:32:32-p272:64:64-i64:64-i128:128-f80:128-n8:16:32:64-S128"
target triple = "x86_64-pc-linux-gnu"

%"struct.llvm::yaml::RISCVMachineFunctionInfo" = type { %"struct.llvm::yaml::MachineFunctionInfo", i32, i32 }
%"struct.llvm::yaml::MachineFunctionInfo" = type { ptr }
%"class.llvm::RISCVMachineFunctionInfo" = type <{ %"struct.llvm::MachineFunctionInfo", i32, i32, i32, i32, i32, [4 x i8], i64, %"struct.llvm::Align", [7 x i8], i64, i32, i8, [3 x i8], %"class.llvm::SmallVector", i32, i32, i32, [4 x i8] }>
%"struct.llvm::MachineFunctionInfo" = type { ptr }
%"struct.llvm::Align" = type { i8 }
%"class.llvm::SmallVector" = type { %"class.llvm::SmallVectorImpl", %"struct.llvm::SmallVectorStorage" }
%"class.llvm::SmallVectorImpl" = type { %"class.llvm::SmallVectorTemplateBase" }
%"class.llvm::SmallVectorTemplateBase" = type { %"class.llvm::SmallVectorTemplateCommon" }
%"class.llvm::SmallVectorTemplateCommon" = type { %"class.llvm::SmallVectorBase" }
%"class.llvm::SmallVectorBase" = type { ptr, i32, i32 }
%"struct.llvm::SmallVectorStorage" = type { [32 x i8] }

@_ZTVN4llvm4yaml24RISCVMachineFunctionInfoE = unnamed_addr constant { [5 x ptr] } { [5 x ptr] [ptr null, ptr null, ptr @_ZN4llvm4yaml24RISCVMachineFunctionInfoD2Ev, ptr @_ZN4llvm4yaml24RISCVMachineFunctionInfoD0Ev, ptr @_ZN4llvm4yaml24RISCVMachineFunctionInfo11mappingImplERNS0_2IOE] }, align 8
@_ZTVN4llvm4yaml19MachineFunctionInfoE = linkonce_odr unnamed_addr constant { [5 x ptr] } { [5 x ptr] [ptr null, ptr null, ptr @_ZN4llvm4yaml19MachineFunctionInfoD2Ev, ptr @_ZN4llvm4yaml19MachineFunctionInfoD0Ev, ptr @_ZN4llvm4yaml19MachineFunctionInfo11mappingImplERNS0_2IOE] }, comdat, align 8

; Function Attrs: mustprogress nounwind uwtable
define linkonce_odr hidden noundef i32 @_ZNK4llvm24RISCVMachineFunctionInfo18getVarArgsSaveSizeEv(ptr noundef nonnull align 8 dereferenceable(124) %0) #0 comdat align 2 {
  %2 = alloca ptr, align 8
  store ptr %0, ptr %2, align 8
  %3 = load ptr, ptr %2, align 8
  %4 = getelementptr inbounds nuw %"class.llvm::RISCVMachineFunctionInfo", ptr %3, i32 0, i32 2
  %5 = load i32, ptr %4, align 4
  ret i32 %5
}

; Function Attrs: mustprogress nounwind uwtable
define linkonce_odr hidden noundef i32 @_ZNK4llvm24RISCVMachineFunctionInfo20getVarArgsFrameIndexEv(ptr noundef nonnull align 8 dereferenceable(124) %0) #0 comdat align 2 {
  %2 = alloca ptr, align 8
  store ptr %0, ptr %2, align 8
  %3 = load ptr, ptr %2, align 8
  %4 = getelementptr inbounds nuw %"class.llvm::RISCVMachineFunctionInfo", ptr %3, i32 0, i32 1
  %5 = load i32, ptr %4, align 8
  ret i32 %5
}

; Function Attrs: mustprogress nounwind uwtable
define linkonce_odr hidden void @_ZN4llvm4yaml19MachineFunctionInfoC2Ev(ptr noundef nonnull align 8 dereferenceable(8) %0) unnamed_addr #0 comdat align 2 {
  %2 = alloca ptr, align 8
  store ptr %0, ptr %2, align 8
  %3 = load ptr, ptr %2, align 8
  store ptr getelementptr inbounds inrange(-16, 24) ({ [5 x ptr] }, ptr @_ZTVN4llvm4yaml19MachineFunctionInfoE, i32 0, i32 0, i32 2), ptr %3, align 8
  ret void
}

; Function Attrs: mustprogress nounwind uwtable
define dso_local void @_ZN4llvm4yaml24RISCVMachineFunctionInfoC2ERKNS_24RISCVMachineFunctionInfoE(ptr noundef nonnull align 8 dereferenceable(16) %0, ptr noundef nonnull align 8 dereferenceable(124) %1) unnamed_addr #0 align 2 {
  %3 = alloca ptr, align 8
  %4 = alloca ptr, align 8
  store ptr %0, ptr %3, align 8
  store ptr %1, ptr %4, align 8
  %5 = load ptr, ptr %3, align 8
  call void @_ZN4llvm4yaml19MachineFunctionInfoC2Ev(ptr noundef nonnull align 8 dereferenceable(8) %5) #6
  store ptr getelementptr inbounds inrange(-16, 24) ({ [5 x ptr] }, ptr @_ZTVN4llvm4yaml24RISCVMachineFunctionInfoE, i32 0, i32 0, i32 2), ptr %5, align 8
  %6 = getelementptr inbounds nuw %"struct.llvm::yaml::RISCVMachineFunctionInfo", ptr %5, i32 0, i32 1
  %7 = load ptr, ptr %4, align 8
  %8 = call noundef i32 @_ZNK4llvm24RISCVMachineFunctionInfo20getVarArgsFrameIndexEv(ptr noundef nonnull align 8 dereferenceable(124) %7)
  store i32 %8, ptr %6, align 8
  %9 = getelementptr inbounds nuw %"struct.llvm::yaml::RISCVMachineFunctionInfo", ptr %5, i32 0, i32 2
  %10 = load ptr, ptr %4, align 8
  %11 = call noundef i32 @_ZNK4llvm24RISCVMachineFunctionInfo18getVarArgsSaveSizeEv(ptr noundef nonnull align 8 dereferenceable(124) %10)
  store i32 %11, ptr %9, align 4
  ret void
}